target datalayout = "e-m:e-p270:32:32-p271:32:32-p272:64:64-i64:64-i128:128-f80:128-n8:16:32:64-S128"
target triple = "x86_64-pc-linux-gnu"

%struct.evp_pkey_st = type { i32, i32, ptr, ptr, ptr, %union.legacy_pkey_st, %union.legacy_pkey_st, %struct.CRYPTO_REF_COUNT, ptr, ptr, i32, i8, %struct.crypto_ex_data_st, ptr, ptr, i64, ptr, i64, %struct.anon }
%union.legacy_pkey_st = type { ptr }
%struct.CRYPTO_REF_COUNT = type { i32 }
%struct.crypto_ex_data_st = type { ptr, ptr }
%struct.anon = type { i32, i32, i32 }
%struct.ossl_param_st = type { ptr, i32, ptr, i64, i64 }

@.str = private unnamed_addr constant [30 x i8] c"../openssl/crypto/evp/p_lib.c\00", align 1
@__func__.EVP_PKEY_get_params = private unnamed_addr constant [20 x i8] c"EVP_PKEY_get_params\00", align 1

; Function Attrs: nounwind uwtable
define i32 @EVP_PKEY_get_params(ptr noundef %0, ptr noundef %1) #0 {
  %3 = alloca i32, align 4
  %4 = alloca ptr, align 8
  %5 = alloca ptr, align 8
  store ptr %0, ptr %4, align 8, !tbaa !3
  store ptr %1, ptr %5, align 8, !tbaa !82
  %6 = load ptr, ptr %4, align 8, !tbaa !3
  %7 = icmp ne ptr %6, null
  br i1 %7, label %8, label %42

8:                                                ; preds = %2
  %9 = load ptr, ptr %4, align 8, !tbaa !3
  %10 = getelementptr inbounds nuw %struct.evp_pkey_st, ptr %9, i32 0, i32 13
  %11 = load ptr, ptr %10, align 8, !tbaa !32
  %12 = icmp ne ptr %11, null
  br i1 %12, label %13, label %24

13:                                               ; preds = %8
  %14 = load ptr, ptr %4, align 8, !tbaa !3
  %15 = getelementptr inbounds nuw %struct.evp_pkey_st, ptr %14, i32 0, i32 13
  %16 = load ptr, ptr %15, align 8, !tbaa !32
  %17 = load ptr, ptr %4, align 8, !tbaa !3
  %18 = getelementptr inbounds nuw %struct.evp_pkey_st, ptr %17, i32 0, i32 14
  %19 = load ptr, ptr %18, align 8, !tbaa !33
  %20 = load ptr, ptr %5, align 8, !tbaa !82
  %21 = call i32 @evp_keymgmt_get_params(ptr noundef %16, ptr noundef %19, ptr noundef %20)
  %22 = icmp sgt i32 %21, 0
  %23 = zext i1 %22 to i32
  store i32 %23, ptr %3, align 4
  br label %43

24:                                               ; preds = %8
  %25 = load ptr, ptr %4, align 8, !tbaa !3
  %26 = getelementptr inbounds nuw %struct.evp_pkey_st, ptr %25, i32 0, i32 0
  %27 = load i32, ptr %26, align 8, !tbaa !29
  %28 = icmp ne i32 %27, 0
  br i1 %28, label %29, label %40

29:                                               ; preds = %24
  %30 = load ptr, ptr %4, align 8, !tbaa !3
  %31 = getelementptr inbounds nuw %struct.evp_pkey_st, ptr %30, i32 0, i32 13
  %32 = load ptr, ptr %31, align 8, !tbaa !32
  %33 = icmp eq ptr %32, null
  br i1 %33, label %34, label %40

34:                                               ; preds = %29
  %35 = load ptr, ptr %4, align 8, !tbaa !3
  %36 = load ptr, ptr %5, align 8, !tbaa !82
  %37 = call i32 @evp_pkey_get_params_to_ctrl(ptr noundef %35, ptr noundef %36)
  %38 = icmp sgt i32 %37, 0
  %39 = zext i1 %38 to i32
  store i32 %39, ptr %3, align 4
  br label %43

40:                                               ; preds = %29, %24
  br label %41

41:                                               ; preds = %40
  br label %42

42:                                               ; preds = %41, %2
  call void @ERR_new()
  call void @ERR_set_debug(ptr noundef @.str, i32 noundef 2459, ptr noundef @__func__.EVP_PKEY_get_params)
  call void (i32, i32, ptr, ...) @ERR_set_error(i32 noundef 6, i32 noundef 163, ptr noundef null)
  store i32 0, ptr %3, align 4
  br label %43

43:                                               ; preds = %42, %34, %13
  %44 = load i32, ptr %3, align 4
  ret i32 %44
}

; Function Attrs: nounwind uwtable
define i32 @EVP_PKEY_get_bn_param(ptr noundef %0, ptr noundef %1, ptr noundef %2) #0 {
  %4 = alloca i32, align 4
  %5 = alloca ptr, align 8
  %6 = alloca ptr, align 8
  %7 = alloca ptr, align 8
  %8 = alloca i32, align 4
  %9 = alloca [2 x %struct.ossl_param_st], align 16
  %10 = alloca [2048 x i8], align 16
  %11 = alloca ptr, align 8
  %12 = alloca i64, align 8
  %13 = alloca i32, align 4
  %14 = alloca %struct.ossl_param_st, align 8
  %15 = alloca %struct.ossl_param_st, align 8
  store ptr %0, ptr %5, align 8, !tbaa !3
  store ptr %1, ptr %6, align 8, !tbaa !39
  store ptr %2, ptr %7, align 8, !tbaa !145
  call void @llvm.lifetime.start.p0(i64 4, ptr %8) #8
  store i32 0, ptr %8, align 4, !tbaa !8
  call void @llvm.lifetime.start.p0(i64 80, ptr %9) #8
  call void @llvm.lifetime.start.p0(i64 2048, ptr %10) #8
  call void @llvm.lifetime.start.p0(i64 8, ptr %11) #8
  store ptr null, ptr %11, align 8, !tbaa !39
  call void @llvm.lifetime.start.p0(i64 8, ptr %12) #8
  store i64 0, ptr %12, align 8, !tbaa !68
  %16 = load ptr, ptr %6, align 8, !tbaa !39
  %17 = icmp eq ptr %16, null
  br i1 %17, label %21, label %18

18:                                               ; preds = %3
  %19 = load ptr, ptr %7, align 8, !tbaa !145
  %20 = icmp eq ptr %19, null
  br i1 %20, label %21, label %22

21:                                               ; preds = %18, %3
  store i32 0, ptr %4, align 4
  store i32 1, ptr %13, align 4
  br label %98

22:                                               ; preds = %18
  %23 = getelementptr inbounds [2048 x i8], ptr %10, i64 0, i64 0
  call void @llvm.memset.p0.i64(ptr align 16 %23, i8 0, i64 2048, i1 false)
  %24 = getelementptr inbounds [2 x %struct.ossl_param_st], ptr %9, i64 0, i64 0
  call void @llvm.lifetime.start.p0(i64 40, ptr %14) #8
  %25 = load ptr, ptr %6, align 8, !tbaa !39
  %26 = getelementptr inbounds [2048 x i8], ptr %10, i64 0, i64 0
  call void @OSSL_PARAM_construct_BN(ptr dead_on_unwind writable sret(%struct.ossl_param_st) align 8 %14, ptr noundef %25, ptr noundef %26, i64 noundef 2048)
  call void @llvm.memcpy.p0.p0.i64(ptr align 16 %24, ptr align 8 %14, i64 40, i1 false), !tbaa.struct !71
  call void @llvm.lifetime.end.p0(i64 40, ptr %14) #8
  %27 = getelementptr inbounds [2 x %struct.ossl_param_st], ptr %9, i64 0, i64 1
  call void @llvm.lifetime.start.p0(i64 40, ptr %15) #8
  call void @OSSL_PARAM_construct_end(ptr dead_on_unwind writable sret(%struct.ossl_param_st) align 8 %15)
  call void @llvm.memcpy.p0.p0.i64(ptr align 8 %27, ptr align 8 %15, i64 40, i1 false), !tbaa.struct !71
  call void @llvm.lifetime.end.p0(i64 40, ptr %15) #8
  %28 = load ptr, ptr %5, align 8, !tbaa !3
  %29 = getelementptr inbounds [2 x %struct.ossl_param_st], ptr %9, i64 0, i64 0
  %30 = call i32 @EVP_PKEY_get_params(ptr noundef %28, ptr noundef %29)
  %31 = icmp ne i32 %30, 0
  br i1 %31, label %64, label %32

32:                                               ; preds = %22
  %33 = getelementptr inbounds [2 x %struct.ossl_param_st], ptr %9, i64 0, i64 0
  %34 = call i32 @OSSL_PARAM_modified(ptr noundef %33)
  %35 = icmp ne i32 %34, 0
  br i1 %35, label %36, label %41

36:                                               ; preds = %32
  %37 = getelementptr inbounds [2 x %struct.ossl_param_st], ptr %9, i64 0, i64 0
  %38 = getelementptr inbounds nuw %struct.ossl_param_st, ptr %37, i32 0, i32 4
  %39 = load i64, ptr %38, align 16, !tbaa !131
  %40 = icmp eq i64 %39, 0
  br i1 %40, label %41, label %42

41:                                               ; preds = %36, %32
  store i32 0, ptr %4, align 4
  store i32 1, ptr %13, align 4
  br label %98

42:                                               ; preds = %36
  %43 = getelementptr inbounds [2 x %struct.ossl_param_st], ptr %9, i64 0, i64 0
  %44 = getelementptr inbounds nuw %struct.ossl_param_st, ptr %43, i32 0, i32 4
  %45 = load i64, ptr %44, align 16, !tbaa !131
  store i64 %45, ptr %12, align 8, !tbaa !68
  %46 = load i64, ptr %12, align 8, !tbaa !68
  %47 = call noalias ptr @CRYPTO_zalloc(i64 noundef %46, ptr noundef @.str, i32 noundef 2236)
  store ptr %47, ptr %11, align 8, !tbaa !39
  %48 = load ptr, ptr %11, align 8, !tbaa !39
  %49 = icmp eq ptr %48, null
  br i1 %49, label %50, label %51

50:                                               ; preds = %42
  store i32 0, ptr %4, align 4
  store i32 1, ptr %13, align 4
  br label %98

51:                                               ; preds = %42
  %52 = load ptr, ptr %11, align 8, !tbaa !39
  %53 = getelementptr inbounds [2 x %struct.ossl_param_st], ptr %9, i64 0, i64 0
  %54 = getelementptr inbounds nuw %struct.ossl_param_st, ptr %53, i32 0, i32 2
  store ptr %52, ptr %54, align 16, !tbaa !147
  %55 = load i64, ptr %12, align 8, !tbaa !68
  %56 = getelementptr inbounds [2 x %struct.ossl_param_st], ptr %9, i64 0, i64 0
  %57 = getelementptr inbounds nuw %struct.ossl_param_st, ptr %56, i32 0, i32 3
  store i64 %55, ptr %57, align 8, !tbaa !148
  %58 = load ptr, ptr %5, align 8, !tbaa !3
  %59 = getelementptr inbounds [2 x %struct.ossl_param_st], ptr %9, i64 0, i64 0
  %60 = call i32 @EVP_PKEY_get_params(ptr noundef %58, ptr noundef %59)
  %61 = icmp ne i32 %60, 0
  br i1 %61, label %63, label %62

62:                                               ; preds = %51
  br label %73

63:                                               ; preds = %51
  br label %64

64:                                               ; preds = %63, %22
  %65 = getelementptr inbounds [2 x %struct.ossl_param_st], ptr %9, i64 0, i64 0
  %66 = call i32 @OSSL_PARAM_modified(ptr noundef %65)
  %67 = icmp ne i32 %66, 0
  br i1 %67, label %69, label %68

68:                                               ; preds = %64
  br label %73

69:                                               ; preds = %64
  %70 = getelementptr inbounds [2 x %struct.ossl_param_st], ptr %9, i64 0, i64 0
  %71 = load ptr, ptr %7, align 8, !tbaa !145
  %72 = call i32 @OSSL_PARAM_get_BN(ptr noundef %70, ptr noundef %71)
  store i32 %72, ptr %8, align 4, !tbaa !8
  br label %73

73:                                               ; preds = %69, %68, %62
  %74 = load ptr, ptr %11, align 8, !tbaa !39
  %75 = icmp ne ptr %74, null
  br i1 %75, label %76, label %86

76:                                               ; preds = %73
  %77 = getelementptr inbounds [2 x %struct.ossl_param_st], ptr %9, i64 0, i64 0
  %78 = call i32 @OSSL_PARAM_modified(ptr noundef %77)
  %79 = icmp ne i32 %78, 0
  br i1 %79, label %80, label %83

80:                                               ; preds = %76
  %81 = load ptr, ptr %11, align 8, !tbaa !39
  %82 = load i64, ptr %12, align 8, !tbaa !68
  call void @CRYPTO_clear_free(ptr noundef %81, i64 noundef %82, ptr noundef @.str, i32 noundef 2252)
  br label %85

83:                                               ; preds = %76
  %84 = load ptr, ptr %11, align 8, !tbaa !39
  call void @CRYPTO_free(ptr noundef %84, ptr noundef @.str, i32 noundef 2254)
  br label %85

85:                                               ; preds = %83, %80
  br label %96

86:                                               ; preds = %73
  %87 = getelementptr inbounds [2 x %struct.ossl_param_st], ptr %9, i64 0, i64 0
  %88 = call i32 @OSSL_PARAM_modified(ptr noundef %87)
  %89 = icmp ne i32 %88, 0
  br i1 %89, label %90, label %95

90:                                               ; preds = %86
  %91 = getelementptr inbounds [2048 x i8], ptr %10, i64 0, i64 0
  %92 = getelementptr inbounds [2 x %struct.ossl_param_st], ptr %9, i64 0, i64 0
  %93 = getelementptr inbounds nuw %struct.ossl_param_st, ptr %92, i32 0, i32 3
  %94 = load i64, ptr %93, align 8, !tbaa !148
  call void @OPENSSL_cleanse(ptr noundef %91, i64 noundef %94)
  br label %95

95:                                               ; preds = %90, %86
  br label %96

96:                                               ; preds = %95, %85
  %97 = load i32, ptr %8, align 4, !tbaa !8
  store i32 %97, ptr %4, align 4
  store i32 1, ptr %13, align 4
  br label %98

98:                                               ; preds = %96, %50, %41, %21
  call void @llvm.lifetime.end.p0(i64 8, ptr %12) #8
  call void @llvm.lifetime.end.p0(i64 8, ptr %11) #8
  call void @llvm.lifetime.end.p0(i64 2048, ptr %10) #8
  call void @llvm.lifetime.end.p0(i64 80, ptr %9) #8
  call void @llvm.lifetime.end.p0(i64 4, ptr %8) #8
  %99 = load i32, ptr %4, align 4
  ret i32 %99
}