; Function Attrs: nounwind uwtable
define i32 @EVP_PKEY_get_bn_param(ptr noundef %0, ptr noundef %1, ptr noundef %2) local_unnamed_addr #0 {
  %4 = alloca [2 x %struct.ossl_param_st], align 16
  %5 = alloca [2048 x i8], align 16
  %6 = alloca %struct.ossl_param_st, align 8
  call void @llvm.lifetime.start.p0(i64 80, ptr nonnull %4) #12
  call void @llvm.lifetime.start.p0(i64 2048, ptr nonnull %5) #12
  %7 = icmp eq ptr %1, null
  %8 = icmp eq ptr %2, null
  %or.cond = or i1 %7, %8
  br i1 %or.cond, label %58, label %9

9:                                                ; preds = %3
  call void @llvm.memset.p0.i64(ptr noundef nonnull align 16 dereferenceable(2048) %5, i8 0, i64 2048, i1 false)
  call void @OSSL_PARAM_construct_BN(ptr dead_on_unwind nonnull writable sret(%struct.ossl_param_st) align 8 %4, ptr noundef nonnull %1, ptr noundef nonnull %5, i64 noundef 2048) #12
  %10 = getelementptr inbounds nuw i8, ptr %4, i64 40
  call void @llvm.lifetime.start.p0(i64 40, ptr nonnull %6) #12
  call void @OSSL_PARAM_construct_end(ptr dead_on_unwind nonnull writable sret(%struct.ossl_param_st) align 8 %6) #12
  call void @llvm.memcpy.p0.p0.i64(ptr noundef nonnull align 8 dereferenceable(40) %10, ptr noundef nonnull align 8 dereferenceable(40) %6, i64 40, i1 false), !tbaa.struct !73
  call void @llvm.lifetime.end.p0(i64 40, ptr nonnull %6) #12
  %.not.i = icmp eq ptr %0, null
  br i1 %.not.i, label %EVP_PKEY_get_params.exit.thread, label %11

11:                                               ; preds = %9
  %12 = getelementptr inbounds nuw i8, ptr %0, i64 96
  %13 = load ptr, ptr %12, align 8, !tbaa !30
  %.not11.i = icmp eq ptr %13, null
  br i1 %.not11.i, label %18, label %14

14:                                               ; preds = %11
  %15 = getelementptr inbounds nuw i8, ptr %0, i64 104
  %16 = load ptr, ptr %15, align 8, !tbaa !33
  %17 = call i32 @evp_keymgmt_get_params(ptr noundef nonnull %13, ptr noundef %16, ptr noundef nonnull %4) #12
  br label %EVP_PKEY_get_params.exit

18:                                               ; preds = %11
  %19 = load i32, ptr %0, align 8, !tbaa !26
  %.not12.i = icmp eq i32 %19, 0
  br i1 %.not12.i, label %EVP_PKEY_get_params.exit.thread, label %20

20:                                               ; preds = %18
  %21 = call i32 @evp_pkey_get_params_to_ctrl(ptr noundef nonnull %0, ptr noundef nonnull %4) #12
  br label %EVP_PKEY_get_params.exit

EVP_PKEY_get_params.exit.thread:                  ; preds = %9, %18
  call void @ERR_new() #12
  call void @ERR_set_debug(ptr noundef nonnull @.str, i32 noundef 2459, ptr noundef nonnull @__func__.EVP_PKEY_get_params) #12
  call void (i32, i32, ptr, ...) @ERR_set_error(i32 noundef 6, i32 noundef 163, ptr noundef null) #12
  br label %22

EVP_PKEY_get_params.exit:                         ; preds = %14, %20
  %.0.shrunk.i.in = phi i32 [ %17, %14 ], [ %21, %20 ]
  %.0.shrunk.i = icmp slt i32 %.0.shrunk.i.in, 1
  br i1 %.0.shrunk.i, label %22, label %45

22:                                               ; preds = %EVP_PKEY_get_params.exit.thread, %EVP_PKEY_get_params.exit
  %23 = call i32 @OSSL_PARAM_modified(ptr noundef nonnull %4) #12
  %24 = icmp eq i32 %23, 0
  %25 = getelementptr inbounds nuw i8, ptr %4, i64 32
  %26 = load i64, ptr %25, align 16
  %27 = icmp eq i64 %26, 0
  %or.cond5 = select i1 %24, i1 true, i1 %27
  br i1 %or.cond5, label %58, label %28

28:                                               ; preds = %22
  %29 = call noalias ptr @CRYPTO_zalloc(i64 noundef %26, ptr noundef nonnull @.str, i32 noundef 2236) #12
  %30 = icmp eq ptr %29, null
  br i1 %30, label %58, label %31

31:                                               ; preds = %28
  %32 = getelementptr inbounds nuw i8, ptr %4, i64 16
  store ptr %29, ptr %32, align 16, !tbaa !105
  %33 = getelementptr inbounds nuw i8, ptr %4, i64 24
  store i64 %26, ptr %33, align 8, !tbaa !106
  br i1 %.not.i, label %EVP_PKEY_get_params.exit38.thread, label %34

34:                                               ; preds = %31
  %35 = getelementptr inbounds nuw i8, ptr %0, i64 96
  %36 = load ptr, ptr %35, align 8, !tbaa !30
  %.not11.i34 = icmp eq ptr %36, null
  br i1 %.not11.i34, label %41, label %37

37:                                               ; preds = %34
  %38 = getelementptr inbounds nuw i8, ptr %0, i64 104
  %39 = load ptr, ptr %38, align 8, !tbaa !33
  %40 = call i32 @evp_keymgmt_get_params(ptr noundef nonnull %36, ptr noundef %39, ptr noundef nonnull %4) #12
  br label %EVP_PKEY_get_params.exit38

41:                                               ; preds = %34
  %42 = load i32, ptr %0, align 8, !tbaa !26
  %.not12.i37 = icmp eq i32 %42, 0
  br i1 %.not12.i37, label %EVP_PKEY_get_params.exit38.thread, label %43

43:                                               ; preds = %41
  %44 = call i32 @evp_pkey_get_params_to_ctrl(ptr noundef nonnull %0, ptr noundef nonnull %4) #12
  br label %EVP_PKEY_get_params.exit38

EVP_PKEY_get_params.exit38.thread:                ; preds = %31, %41
  call void @ERR_new() #12
  call void @ERR_set_debug(ptr noundef nonnull @.str, i32 noundef 2459, ptr noundef nonnull @__func__.EVP_PKEY_get_params) #12
  call void (i32, i32, ptr, ...) @ERR_set_error(i32 noundef 6, i32 noundef 163, ptr noundef null) #12
  br label %.thread

EVP_PKEY_get_params.exit38:                       ; preds = %37, %43
  %.0.shrunk.i35.in = phi i32 [ %40, %37 ], [ %44, %43 ]
  %.0.shrunk.i35 = icmp slt i32 %.0.shrunk.i35.in, 1
  br i1 %.0.shrunk.i35, label %.thread, label %45

45:                                               ; preds = %EVP_PKEY_get_params.exit38, %EVP_PKEY_get_params.exit
  %.020 = phi ptr [ null, %EVP_PKEY_get_params.exit ], [ %29, %EVP_PKEY_get_params.exit38 ]
  %.0 = phi i64 [ 0, %EVP_PKEY_get_params.exit ], [ %26, %EVP_PKEY_get_params.exit38 ]
  %46 = call i32 @OSSL_PARAM_modified(ptr noundef nonnull %4) #12
  %.not29 = icmp eq i32 %46, 0
  br i1 %.not29, label %49, label %47

47:                                               ; preds = %45
  %48 = call i32 @OSSL_PARAM_get_BN(ptr noundef nonnull %4, ptr noundef nonnull %2) #12
  br label %49

49:                                               ; preds = %45, %47
  %.022 = phi i32 [ %48, %47 ], [ 0, %45 ]
  %.not30 = icmp eq ptr %.020, null
  br i1 %.not30, label %53, label %.thread

.thread:                                          ; preds = %EVP_PKEY_get_params.exit38.thread, %EVP_PKEY_get_params.exit38, %49
  %.151 = phi i64 [ %.0, %49 ], [ %26, %EVP_PKEY_get_params.exit38 ], [ %26, %EVP_PKEY_get_params.exit38.thread ]
  %.12150 = phi ptr [ %.020, %49 ], [ %29, %EVP_PKEY_get_params.exit38 ], [ %29, %EVP_PKEY_get_params.exit38.thread ]
  %.02249 = phi i32 [ %.022, %49 ], [ 0, %EVP_PKEY_get_params.exit38 ], [ 0, %EVP_PKEY_get_params.exit38.thread ]
  %50 = call i32 @OSSL_PARAM_modified(ptr noundef nonnull %4) #12
  %.not32 = icmp eq i32 %50, 0
  br i1 %.not32, label %52, label %51

51:                                               ; preds = %.thread
  call void @CRYPTO_clear_free(ptr noundef nonnull %.12150, i64 noundef %.151, ptr noundef nonnull @.str, i32 noundef 2252) #12
  br label %58

52:                                               ; preds = %.thread
  call void @CRYPTO_free(ptr noundef nonnull %.12150, ptr noundef nonnull @.str, i32 noundef 2254) #12
  br label %58

53:                                               ; preds = %49
  %54 = call i32 @OSSL_PARAM_modified(ptr noundef nonnull %4) #12
  %.not31 = icmp eq i32 %54, 0
  br i1 %.not31, label %58, label %55

55:                                               ; preds = %53
  %56 = getelementptr inbounds nuw i8, ptr %4, i64 24
  %57 = load i64, ptr %56, align 8, !tbaa !106
  call void @OPENSSL_cleanse(ptr noundef nonnull %5, i64 noundef %57) #12
  br label %58

58:                                               ; preds = %52, %51, %55, %53, %28, %22, %3
  %.023 = phi i32 [ 0, %3 ], [ 0, %22 ], [ 0, %28 ], [ %.022, %53 ], [ %.022, %55 ], [ %.02249, %51 ], [ %.02249, %52 ]
  call void @llvm.lifetime.end.p0(i64 2048, ptr nonnull %5) #12
  call void @llvm.lifetime.end.p0(i64 80, ptr nonnull %4) #12
  ret i32 %.023
}